; Function Attrs: mustprogress uwtable
define hidden void @_ZNK19OpenColorIO_v2_4dev18RangeTransformImpl18createEditableCopyEv(ptr noalias nocapture writeonly sret(%"class.std::shared_ptr.8") align 8 %agg.result, ptr noundef nonnull align 8 dereferenceable(248) %this) unnamed_addr #3 align 2 personality ptr @__gxx_personality_v0 {
entry:
  %transform = alloca %"class.std::shared_ptr", align 8
  call void @_ZN19OpenColorIO_v2_4dev14RangeTransform6CreateEv(ptr nonnull sret(%"class.std::shared_ptr") align 8 %transform)
  %m_data.i = getelementptr inbounds i8, ptr %this, i64 16
  %0 = load ptr, ptr %transform, align 8, !nonnull !4, !noundef !4
  %1 = tail call ptr @__dynamic_cast(ptr nonnull %0, ptr nonnull @_ZTIN19OpenColorIO_v2_4dev14RangeTransformE, ptr nonnull @_ZTIN19OpenColorIO_v2_4dev18RangeTransformImplE, i64 0) #18
  %m_data.i1 = getelementptr inbounds i8, ptr %1, i64 16
  %call.i2 = invoke noundef nonnull align 8 dereferenceable(168) ptr @_ZN19OpenColorIO_v2_4dev6OpDataaSERKS0_(ptr noundef nonnull align 8 dereferenceable(168) %m_data.i1, ptr noundef nonnull align 8 dereferenceable(168) %m_data.i)
          to label %_ZNSt10shared_ptrIN19OpenColorIO_v2_4dev14RangeTransformEED2Ev.exit unwind label %lpad

_ZNSt10shared_ptrIN19OpenColorIO_v2_4dev14RangeTransformEED2Ev.exit: ; preds = %entry
  %m_minInValue.i = getelementptr inbounds i8, ptr %1, i64 184
  %m_minInValue2.i = getelementptr inbounds i8, ptr %this, i64 184
  tail call void @llvm.memcpy.p0.p0.i64(ptr noundef nonnull align 8 dereferenceable(60) %m_minInValue.i, ptr noundef nonnull align 8 dereferenceable(60) %m_minInValue2.i, i64 60, i1 false)
  %m_style = getelementptr inbounds i8, ptr %this, i64 8
  %2 = load i32, ptr %m_style, align 8
  %vtable = load ptr, ptr %0, align 8
  %vfn = getelementptr inbounds i8, ptr %vtable, i64 64
  %3 = load ptr, ptr %vfn, align 8
  tail call void %3(ptr noundef nonnull align 8 dereferenceable(8) %0, i32 noundef %2) #18
  store ptr %0, ptr %agg.result, align 8
  %_M_refcount.i.i = getelementptr inbounds i8, ptr %agg.result, i64 8
  %_M_refcount4.i.i = getelementptr inbounds i8, ptr %transform, i64 8
  %4 = load ptr, ptr %_M_refcount4.i.i, align 8
  store ptr %4, ptr %_M_refcount.i.i, align 8
  ret void

lpad:                                             ; preds = %entry
  %5 = landingpad { ptr, i32 }
          cleanup
  call void @_ZNSt10shared_ptrIN19OpenColorIO_v2_4dev14RangeTransformEED2Ev(ptr noundef nonnull align 8 dereferenceable(16) %transform) #18
  resume { ptr, i32 } %5
}